target datalayout = "e-m:e-p270:32:32-p271:32:32-p272:64:64-i64:64-i128:128-f80:128-n8:16:32:64-S128"
target triple = "x86_64-pc-linux-gnu"

%struct.Curl_easy = type { i32, i64, i64, ptr, %struct.Curl_llist_node, %struct.Curl_llist_node, i32, i32, %struct.Curl_message, %struct.easy_pollset, %struct.Names, ptr, ptr, ptr, ptr, %struct.SingleRequest, %struct.UserDefined, ptr, ptr, ptr, %struct.Progress, %struct.UrlState, ptr, %struct.PureInfo, %struct.curl_tlssessioninfo }
%struct.Curl_llist_node = type { ptr, ptr, ptr, ptr }
%struct.Curl_message = type { %struct.Curl_llist_node, %struct.CURLMsg }
%struct.CURLMsg = type { i32, ptr, %union.anon }
%union.anon = type { ptr }
%struct.easy_pollset = type { [5 x i32], i32, [5 x i8] }
%struct.Names = type { ptr, i32 }
%struct.SingleRequest = type <{ i64, i64, i64, i64, %struct.curltime, i32, i32, i32, i32, i64, i32, i32, i8, i8, [2 x i8], i32, ptr, ptr, %struct.bufq, i64, i64, ptr, ptr, %union.anon.0, ptr, i8, i32, [3 x i8] }>
%struct.curltime = type { i64, i32 }
%struct.bufq = type { ptr, ptr, ptr, ptr, i64, i64, i64, i32 }
%union.anon.0 = type { ptr }
%struct.UserDefined = type <{ ptr, ptr, ptr, ptr, ptr, ptr, i64, i64, i64, ptr, ptr, i64, ptr, ptr, ptr, ptr, ptr, ptr, ptr, ptr, ptr, ptr, ptr, ptr, ptr, ptr, ptr, ptr, ptr, ptr, ptr, ptr, ptr, ptr, ptr, i64, i64, i64, i64, i64, i64, i64, i64, i64, ptr, ptr, %struct.curl_mimepart, ptr, ptr, ptr, i64, %struct.ssl_config_data, %struct.ssl_config_data, ptr, i16, i8, i8, %struct.ssl_general_config, i32, i32, i32, [4 x i8], ptr, ptr, i64, i32, i8, i8, i8, i8, ptr, ptr, ptr, i32, [4 x i8], [74 x ptr], [8 x ptr], i32, i32, i32, [4 x i8], ptr, i32, [4 x i8], ptr, ptr, ptr, ptr, ptr, i32, i32, i32, i32, i32, i32, i32, i32, i64, ptr, ptr, i64, ptr, i64, ptr, ptr, ptr, ptr, i32, i16, i16, i16, i8, i8, i8, i8, i8, i8, i8, i8, i64, [6 x i8] }>
%struct.curl_mimepart = type { ptr, ptr, i32, i32, ptr, ptr, ptr, ptr, ptr, ptr, ptr, ptr, ptr, ptr, ptr, i64, %struct.mime_state, ptr, %struct.mime_encoder_state, i64 }
%struct.mime_state = type { i32, ptr, i64 }
%struct.mime_encoder_state = type { i64, i64, i64, [256 x i8] }
%struct.ssl_config_data = type { %struct.ssl_primary_config, i64, ptr, ptr, ptr, ptr, ptr, ptr, ptr, i16 }
%struct.ssl_primary_config = type { ptr, ptr, ptr, ptr, ptr, ptr, ptr, ptr, ptr, ptr, ptr, ptr, ptr, ptr, i8, i32, i8, i8 }
%struct.ssl_general_config = type { i32 }
%struct.Progress = type { i64, %struct.pgrs_dir, %struct.pgrs_dir, i64, i64, i32, i32, i64, i64, i64, i64, i64, i64, i64, i64, i64, %struct.curltime, %struct.curltime, %struct.curltime, %struct.curltime, %struct.curltime, [6 x i64], [6 x %struct.curltime], i32, i8 }
%struct.pgrs_dir = type { i64, i64, i64, %struct.pgrs_measure }
%struct.pgrs_measure = type { %struct.curltime, i64 }
%struct.UrlState = type { %struct.curltime, i64, i64, %struct.dynbuf, ptr, i64, ptr, i32, i32, i32, ptr, i32, i64, i32, ptr, %struct.digestdata, %struct.digestdata, %struct.auth, %struct.auth, %struct.Curl_async, ptr, i8, %struct.curltime, %struct.Curl_tree, %struct.Curl_llist, [15 x %struct.time_node], ptr, ptr, i64, i64, i64, i64, [32 x i8], i64, ptr, ptr, ptr, %struct.urlpieces, ptr, ptr, ptr, ptr, ptr, i64, %struct.dynbuf, %struct.Curl_llist, [2 x %struct.curl_header], ptr, i32, ptr, ptr, %struct.store_netrc, %struct.dynamically_allocated_data, i8, i8, i8, i8, i32 }
%struct.digestdata = type { ptr, ptr, ptr, ptr, ptr, ptr, i32, i8, i8 }
%struct.auth = type { i64, i64, i64, i8 }
%struct.Curl_async = type { ptr, ptr, ptr, ptr, i32, i32, i8 }
%struct.Curl_tree = type { ptr, ptr, ptr, ptr, %struct.curltime, ptr }
%struct.time_node = type { %struct.Curl_llist_node, %struct.curltime, i32 }
%struct.urlpieces = type { ptr, ptr, ptr, ptr, ptr, ptr, ptr, ptr }
%struct.dynbuf = type { ptr, i64, i64, i64 }
%struct.Curl_llist = type { ptr, ptr, ptr, i64 }
%struct.curl_header = type { ptr, ptr, i64, i64, i32, ptr }
%struct.store_netrc = type { %struct.dynbuf, ptr, i8 }
%struct.dynamically_allocated_data = type { ptr, ptr, ptr, ptr, ptr, ptr, ptr, ptr, ptr, ptr, ptr, ptr, ptr, ptr }
%struct.PureInfo = type { i32, i32, i32, i64, i64, i64, i64, i64, i64, i64, ptr, ptr, i64, i32, %struct.ip_quadruple, i32, ptr, i32, %struct.curl_certinfo, i32, i8 }
%struct.ip_quadruple = type { [46 x i8], [46 x i8], i32, i32 }
%struct.curl_certinfo = type { i32, ptr }
%struct.curl_tlssessioninfo = type { i32, ptr }
%struct.curl_trc_feat = type { ptr, i32 }
%struct.CookieInfo = type { [63 x %struct.Curl_llist], i64, i32, i32, i8 }

@Curl_ccalloc = external global ptr, align 8
@.str.5 = private unnamed_addr constant [2 x i8] c"-\00", align 1
@stdin = external global ptr, align 8
@.str.6 = private unnamed_addr constant [3 x i8] c"rb\00", align 1
@.str.7 = private unnamed_addr constant [41 x i8] c"WARNING: failed to open cookie file \22%s\22\00", align 1
@.str.8 = private unnamed_addr constant [12 x i8] c"Set-Cookie:\00", align 1

; Function Attrs: nounwind uwtable
define hidden ptr @Curl_cookie_init(ptr noundef %0, ptr noundef %1, ptr noundef %2, i1 noundef zeroext %3) #0 {
  %5 = alloca ptr, align 8
  %6 = alloca ptr, align 8
  %7 = alloca ptr, align 8
  %8 = alloca ptr, align 8
  %9 = alloca i8, align 1
  %10 = alloca ptr, align 8
  %11 = alloca i32, align 4
  %12 = alloca i32, align 4
  %13 = alloca ptr, align 8
  %14 = alloca %struct.dynbuf, align 8
  %15 = alloca ptr, align 8
  %16 = alloca i8, align 1
  store ptr %0, ptr %6, align 8, !tbaa !3
  store ptr %1, ptr %7, align 8, !tbaa !88
  store ptr %2, ptr %8, align 8, !tbaa !81
  %17 = zext i1 %3 to i8
  store i8 %17, ptr %9, align 1, !tbaa !89
  call void @llvm.lifetime.start.p0(i64 8, ptr %10) #6
  store ptr null, ptr %10, align 8, !tbaa !91
  %18 = load ptr, ptr %8, align 8, !tbaa !81
  %19 = icmp ne ptr %18, null
  br i1 %19, label %45, label %20

20:                                               ; preds = %4
  call void @llvm.lifetime.start.p0(i64 4, ptr %11) #6
  %21 = load ptr, ptr @Curl_ccalloc, align 8, !tbaa !92
  %22 = call ptr %21(i64 noundef 1, i64 noundef 2040)
  store ptr %22, ptr %8, align 8, !tbaa !81
  %23 = load ptr, ptr %8, align 8, !tbaa !81
  %24 = icmp ne ptr %23, null
  br i1 %24, label %26, label %25

25:                                               ; preds = %20
  store ptr null, ptr %5, align 8
  store i32 1, ptr %12, align 4
  br label %42

26:                                               ; preds = %20
  store i32 0, ptr %11, align 4, !tbaa !93
  br label %27

27:                                               ; preds = %36, %26
  %28 = load i32, ptr %11, align 4, !tbaa !93
  %29 = icmp slt i32 %28, 63
  br i1 %29, label %30, label %39

30:                                               ; preds = %27
  %31 = load ptr, ptr %8, align 8, !tbaa !81
  %32 = getelementptr inbounds nuw %struct.CookieInfo, ptr %31, i32 0, i32 0
  %33 = load i32, ptr %11, align 4, !tbaa !93
  %34 = sext i32 %33 to i64
  %35 = getelementptr inbounds [63 x %struct.Curl_llist], ptr %32, i64 0, i64 %34
  call void @Curl_llist_init(ptr noundef %35, ptr noundef null)
  br label %36

36:                                               ; preds = %30
  %37 = load i32, ptr %11, align 4, !tbaa !93
  %38 = add nsw i32 %37, 1
  store i32 %38, ptr %11, align 4, !tbaa !93
  br label %27, !llvm.loop !94

39:                                               ; preds = %27
  %40 = load ptr, ptr %8, align 8, !tbaa !81
  %41 = getelementptr inbounds nuw %struct.CookieInfo, ptr %40, i32 0, i32 1
  store i64 9223372036854775807, ptr %41, align 8, !tbaa !95
  store i32 0, ptr %12, align 4
  br label %42

42:                                               ; preds = %39, %25
  call void @llvm.lifetime.end.p0(i64 4, ptr %11) #6
  %43 = load i32, ptr %12, align 4
  switch i32 %43, label %188 [
    i32 0, label %44
  ]

44:                                               ; preds = %42
  br label %45

45:                                               ; preds = %44, %4
  %46 = load i8, ptr %9, align 1, !tbaa !89, !range !97, !noundef !98
  %47 = trunc i8 %46 to i1
  %48 = zext i1 %47 to i32
  %49 = load ptr, ptr %8, align 8, !tbaa !81
  %50 = getelementptr inbounds nuw %struct.CookieInfo, ptr %49, i32 0, i32 4
  %51 = trunc i32 %48 to i8
  %52 = load i8, ptr %50, align 8
  %53 = and i8 %51, 1
  %54 = shl i8 %53, 1
  %55 = and i8 %52, -3
  %56 = or i8 %55, %54
  store i8 %56, ptr %50, align 8
  %57 = load ptr, ptr %6, align 8, !tbaa !3
  %58 = icmp ne ptr %57, null
  br i1 %58, label %59, label %181

59:                                               ; preds = %45
  call void @llvm.lifetime.start.p0(i64 8, ptr %13) #6
  store ptr null, ptr %13, align 8, !tbaa !91
  %60 = load ptr, ptr %7, align 8, !tbaa !88
  %61 = icmp ne ptr %60, null
  br i1 %61, label %62, label %115

62:                                               ; preds = %59
  %63 = load ptr, ptr %7, align 8, !tbaa !88
  %64 = load i8, ptr %63, align 1, !tbaa !99
  %65 = sext i8 %64 to i32
  %66 = icmp ne i32 %65, 0
  br i1 %66, label %67, label %115

67:                                               ; preds = %62
  %68 = load ptr, ptr %7, align 8, !tbaa !88
  %69 = call i32 @strcmp(ptr noundef %68, ptr noundef @.str.5) #7
  %70 = icmp ne i32 %69, 0
  br i1 %70, label %73, label %71

71:                                               ; preds = %67
  %72 = load ptr, ptr @stdin, align 8, !tbaa !91
  store ptr %72, ptr %13, align 8, !tbaa !91
  br label %114

73:                                               ; preds = %67
  %74 = load ptr, ptr %7, align 8, !tbaa !88
  %75 = call noalias ptr @fopen(ptr noundef %74, ptr noundef @.str.6)
  store ptr %75, ptr %13, align 8, !tbaa !91
  %76 = load ptr, ptr %13, align 8, !tbaa !91
  %77 = icmp ne ptr %76, null
  br i1 %77, label %111, label %78

78:                                               ; preds = %73
  br label %79

79:                                               ; preds = %78
  %80 = load ptr, ptr %6, align 8, !tbaa !3
  %81 = icmp ne ptr %80, null
  br i1 %81, label %82, label %108

82:                                               ; preds = %79
  %83 = load ptr, ptr %6, align 8, !tbaa !3
  %84 = getelementptr inbounds nuw %struct.Curl_easy, ptr %83, i32 0, i32 16
  %85 = getelementptr inbounds nuw %struct.UserDefined, ptr %84, i32 0, i32 119
  %86 = load i64, ptr %85, align 2
  %87 = lshr i64 %86, 31
  %88 = and i64 %87, 1
  %89 = trunc i64 %88 to i32
  %90 = icmp ne i32 %89, 0
  br i1 %90, label %91, label %108

91:                                               ; preds = %82
  %92 = load ptr, ptr %6, align 8, !tbaa !3
  %93 = getelementptr inbounds nuw %struct.Curl_easy, ptr %92, i32 0, i32 21
  %94 = getelementptr inbounds nuw %struct.UrlState, ptr %93, i32 0, i32 50
  %95 = load ptr, ptr %94, align 8, !tbaa !82
  %96 = icmp ne ptr %95, null
  br i1 %96, label %97, label %105

97:                                               ; preds = %91
  %98 = load ptr, ptr %6, align 8, !tbaa !3
  %99 = getelementptr inbounds nuw %struct.Curl_easy, ptr %98, i32 0, i32 21
  %100 = getelementptr inbounds nuw %struct.UrlState, ptr %99, i32 0, i32 50
  %101 = load ptr, ptr %100, align 8, !tbaa !82
  %102 = getelementptr inbounds nuw %struct.curl_trc_feat, ptr %101, i32 0, i32 1
  %103 = load i32, ptr %102, align 8, !tbaa !83
  %104 = icmp sge i32 %103, 1
  br i1 %104, label %105, label %108

105:                                              ; preds = %97, %91
  %106 = load ptr, ptr %6, align 8, !tbaa !3
  %107 = load ptr, ptr %7, align 8, !tbaa !88
  call void (ptr, ptr, ...) @Curl_infof(ptr noundef %106, ptr noundef @.str.7, ptr noundef %107)
  br label %108

108:                                              ; preds = %105, %97, %82, %79
  br label %109

109:                                              ; preds = %108
  br label %110

110:                                              ; preds = %109
  br label %113

111:                                              ; preds = %73
  %112 = load ptr, ptr %13, align 8, !tbaa !91
  store ptr %112, ptr %10, align 8, !tbaa !91
  br label %113

113:                                              ; preds = %111, %110
  br label %114

114:                                              ; preds = %113, %71
  br label %115

115:                                              ; preds = %114, %62, %59
  %116 = load ptr, ptr %8, align 8, !tbaa !81
  %117 = getelementptr inbounds nuw %struct.CookieInfo, ptr %116, i32 0, i32 4
  %118 = load i8, ptr %117, align 8
  %119 = and i8 %118, -2
  %120 = or i8 %119, 0
  store i8 %120, ptr %117, align 8
  %121 = load ptr, ptr %13, align 8, !tbaa !91
  %122 = icmp ne ptr %121, null
  br i1 %122, label %123, label %174

123:                                              ; preds = %115
  call void @llvm.lifetime.start.p0(i64 32, ptr %14) #6
  call void @Curl_dyn_init(ptr noundef %14, i64 noundef 5000)
  br label %124

124:                                              ; preds = %159, %123
  %125 = load ptr, ptr %13, align 8, !tbaa !91
  %126 = call i32 @Curl_get_line(ptr noundef %14, ptr noundef %125)
  %127 = icmp ne i32 %126, 0
  br i1 %127, label %128, label %166

128:                                              ; preds = %124
  call void @llvm.lifetime.start.p0(i64 8, ptr %15) #6
  %129 = call ptr @Curl_dyn_ptr(ptr noundef %14)
  store ptr %129, ptr %15, align 8, !tbaa !88
  call void @llvm.lifetime.start.p0(i64 1, ptr %16) #6
  store i8 0, ptr %16, align 1, !tbaa !89
  %130 = load ptr, ptr %15, align 8, !tbaa !88
  %131 = call i32 @curl_strnequal(ptr noundef %130, ptr noundef @.str.8, i64 noundef 11)
  %132 = icmp ne i32 %131, 0
  br i1 %132, label %133, label %159

133:                                              ; preds = %128
  %134 = load ptr, ptr %15, align 8, !tbaa !88
  %135 = getelementptr inbounds i8, ptr %134, i64 11
  store ptr %135, ptr %15, align 8, !tbaa !88
  store i8 1, ptr %16, align 1, !tbaa !89
  br label %136

136:                                              ; preds = %155, %133
  %137 = load ptr, ptr %15, align 8, !tbaa !88
  %138 = load i8, ptr %137, align 1, !tbaa !99
  %139 = sext i8 %138 to i32
  %140 = icmp ne i32 %139, 0
  br i1 %140, label %141, label %153

141:                                              ; preds = %136
  %142 = load ptr, ptr %15, align 8, !tbaa !88
  %143 = load i8, ptr %142, align 1, !tbaa !99
  %144 = sext i8 %143 to i32
  %145 = icmp eq i32 %144, 32
  br i1 %145, label %151, label %146

146:                                              ; preds = %141
  %147 = load ptr, ptr %15, align 8, !tbaa !88
  %148 = load i8, ptr %147, align 1, !tbaa !99
  %149 = sext i8 %148 to i32
  %150 = icmp eq i32 %149, 9
  br label %151

151:                                              ; preds = %146, %141
  %152 = phi i1 [ true, %141 ], [ %150, %146 ]
  br label %153

153:                                              ; preds = %151, %136
  %154 = phi i1 [ false, %136 ], [ %152, %151 ]
  br i1 %154, label %155, label %158

155:                                              ; preds = %153
  %156 = load ptr, ptr %15, align 8, !tbaa !88
  %157 = getelementptr inbounds nuw i8, ptr %156, i32 1
  store ptr %157, ptr %15, align 8, !tbaa !88
  br label %136, !llvm.loop !100

158:                                              ; preds = %153
  br label %159

159:                                              ; preds = %158, %128
  %160 = load ptr, ptr %6, align 8, !tbaa !3
  %161 = load ptr, ptr %8, align 8, !tbaa !81
  %162 = load i8, ptr %16, align 1, !tbaa !89, !range !97, !noundef !98
  %163 = trunc i8 %162 to i1
  %164 = load ptr, ptr %15, align 8, !tbaa !88
  %165 = call ptr @Curl_cookie_add(ptr noundef %160, ptr noundef %161, i1 noundef zeroext %163, i1 noundef zeroext true, ptr noundef %164, ptr noundef null, ptr noundef null, i1 noundef zeroext true)
  call void @llvm.lifetime.end.p0(i64 1, ptr %16) #6
  call void @llvm.lifetime.end.p0(i64 8, ptr %15) #6
  br label %124, !llvm.loop !101

166:                                              ; preds = %124
  call void @Curl_dyn_free(ptr noundef %14)
  %167 = load ptr, ptr %8, align 8, !tbaa !81
  call void @remove_expired(ptr noundef %167)
  %168 = load ptr, ptr %10, align 8, !tbaa !91
  %169 = icmp ne ptr %168, null
  br i1 %169, label %170, label %173

170:                                              ; preds = %166
  %171 = load ptr, ptr %10, align 8, !tbaa !91
  %172 = call i32 @fclose(ptr noundef %171)
  br label %173

173:                                              ; preds = %170, %166
  call void @llvm.lifetime.end.p0(i64 32, ptr %14) #6
  br label %174

174:                                              ; preds = %173, %115
  %175 = load ptr, ptr %6, align 8, !tbaa !3
  %176 = getelementptr inbounds nuw %struct.Curl_easy, ptr %175, i32 0, i32 21
  %177 = getelementptr inbounds nuw %struct.UrlState, ptr %176, i32 0, i32 57
  %178 = load i32, ptr %177, align 4
  %179 = and i32 %178, -8193
  %180 = or i32 %179, 8192
  store i32 %180, ptr %177, align 4
  call void @llvm.lifetime.end.p0(i64 8, ptr %13) #6
  br label %181

181:                                              ; preds = %174, %45
  %182 = load ptr, ptr %8, align 8, !tbaa !81
  %183 = getelementptr inbounds nuw %struct.CookieInfo, ptr %182, i32 0, i32 4
  %184 = load i8, ptr %183, align 8
  %185 = and i8 %184, -2
  %186 = or i8 %185, 1
  store i8 %186, ptr %183, align 8
  %187 = load ptr, ptr %8, align 8, !tbaa !81
  store ptr %187, ptr %5, align 8
  store i32 1, ptr %12, align 4
  br label %188

188:                                              ; preds = %181, %42
  call void @llvm.lifetime.end.p0(i64 8, ptr %10) #6
  %189 = load ptr, ptr %5, align 8
  ret ptr %189
}