; Function Attrs: nounwind uwtable
define hidden ptr @Curl_cookie_init(ptr noundef %0, ptr noundef %1, ptr noundef %2, i1 noundef zeroext %3) local_unnamed_addr #0 {
  %5 = alloca %struct.dynbuf, align 8
  %.not = icmp eq ptr %2, null
  br i1 %.not, label %6, label %12

6:                                                ; preds = %4
  %7 = load ptr, ptr @Curl_ccalloc, align 8, !tbaa !84
  %8 = tail call ptr %7(i64 noundef 1, i64 noundef 2040) #12
  %.not60.not = icmp eq ptr %8, null
  br i1 %.not60.not, label %.critedge74, label %.preheader

.preheader:                                       ; preds = %6, %.preheader
  %indvars.iv = phi i64 [ %indvars.iv.next, %.preheader ], [ 0, %6 ]
  %9 = getelementptr inbounds nuw [63 x %struct.Curl_llist], ptr %8, i64 0, i64 %indvars.iv
  tail call void @Curl_llist_init(ptr noundef nonnull %9, ptr noundef null) #12
  %indvars.iv.next = add nuw nsw i64 %indvars.iv, 1
  %exitcond.not = icmp eq i64 %indvars.iv.next, 63
  br i1 %exitcond.not, label %10, label %.preheader, !llvm.loop !85

10:                                               ; preds = %.preheader
  %11 = getelementptr inbounds nuw i8, ptr %8, i64 2016
  store i64 9223372036854775807, ptr %11, align 8, !tbaa !86
  br label %12

12:                                               ; preds = %10, %4
  %.051 = phi ptr [ %2, %4 ], [ %8, %10 ]
  %13 = getelementptr inbounds nuw i8, ptr %.051, i64 2032
  %14 = load i8, ptr %13, align 8
  %15 = select i1 %3, i8 2, i8 0
  %16 = and i8 %14, -3
  %17 = or disjoint i8 %16, %15
  store i8 %17, ptr %13, align 8
  %.not61 = icmp eq ptr %0, null
  br i1 %.not61, label %62, label %18

18:                                               ; preds = %12
  %.not62 = icmp eq ptr %1, null
  br i1 %.not62, label %.thread, label %19

19:                                               ; preds = %18
  %20 = load i8, ptr %1, align 1, !tbaa !88
  switch i8 %20, label %.tail.thread [
    i8 0, label %.thread
    i8 45, label %.tail
  ]

.tail:                                            ; preds = %19
  %21 = getelementptr inbounds nuw i8, ptr %1, i64 1
  %22 = load i8, ptr %21, align 1
  %23 = icmp eq i8 %22, 0
  br i1 %23, label %41, label %.tail.thread

.tail.thread:                                     ; preds = %19, %.tail
  %24 = tail call noalias ptr @fopen(ptr noundef nonnull %1, ptr noundef nonnull @.str.6)
  %.not65 = icmp eq ptr %24, null
  br i1 %.not65, label %27, label %.thread78

.thread78:                                        ; preds = %.tail.thread
  %25 = load i8, ptr %13, align 8
  %26 = and i8 %25, -2
  store i8 %26, ptr %13, align 8
  br label %44

27:                                               ; preds = %.tail.thread
  %28 = getelementptr inbounds nuw i8, ptr %0, i64 2658
  %29 = load i64, ptr %28, align 2
  %30 = and i64 %29, 2147483648
  %.not66 = icmp eq i64 %30, 0
  br i1 %.not66, label %.thread, label %31

31:                                               ; preds = %27
  %32 = getelementptr inbounds nuw i8, ptr %0, i64 4864
  %33 = load ptr, ptr %32, align 8, !tbaa !78
  %.not67 = icmp eq ptr %33, null
  br i1 %.not67, label %38, label %34

34:                                               ; preds = %31
  %35 = getelementptr inbounds nuw i8, ptr %33, i64 8
  %36 = load i32, ptr %35, align 8, !tbaa !79
  %37 = icmp sgt i32 %36, 0
  br i1 %37, label %38, label %.thread

38:                                               ; preds = %34, %31
  tail call void (ptr, ptr, ...) @Curl_infof(ptr noundef nonnull %0, ptr noundef nonnull @.str.7, ptr noundef nonnull %1) #12
  br label %.thread

.thread:                                          ; preds = %19, %38, %34, %27, %18
  %39 = load i8, ptr %13, align 8
  %40 = and i8 %39, -2
  store i8 %40, ptr %13, align 8
  br label %58

41:                                               ; preds = %.tail
  %42 = load ptr, ptr @stdin, align 8, !tbaa !89
  %43 = and i8 %17, -2
  store i8 %43, ptr %13, align 8
  %.not68 = icmp eq ptr %42, null
  br i1 %.not68, label %58, label %44

44:                                               ; preds = %.thread78, %41
  %.04583 = phi ptr [ %24, %.thread78 ], [ %42, %41 ]
  %.04882 = phi ptr [ %24, %.thread78 ], [ null, %41 ]
  call void @llvm.lifetime.start.p0(i64 32, ptr nonnull %5) #12
  call void @Curl_dyn_init(ptr noundef nonnull %5, i64 noundef 5000) #12
  %45 = call i32 @Curl_get_line(ptr noundef nonnull %5, ptr noundef nonnull %.04583) #12
  %.not6985 = icmp eq i32 %45, 0
  br i1 %.not6985, label %._crit_edge, label %.lr.ph

.lr.ph:                                           ; preds = %44, %.critedge
  %46 = call ptr @Curl_dyn_ptr(ptr noundef nonnull %5) #12
  %47 = call i32 @curl_strnequal(ptr noundef %46, ptr noundef nonnull @.str.8, i64 noundef 11) #12
  %.not71 = icmp ne i32 %47, 0
  br i1 %.not71, label %48, label %.critedge

48:                                               ; preds = %.lr.ph
  %49 = getelementptr inbounds nuw i8, ptr %46, i64 11
  br label %50

50:                                               ; preds = %.critedge2, %48
  %.1 = phi ptr [ %49, %48 ], [ %52, %.critedge2 ]
  %51 = load i8, ptr %.1, align 1, !tbaa !88
  switch i8 %51, label %.critedge [
    i8 9, label %.critedge2
    i8 32, label %.critedge2
  ]

.critedge2:                                       ; preds = %50, %50
  %52 = getelementptr inbounds nuw i8, ptr %.1, i64 1
  br label %50, !llvm.loop !90

.critedge:                                        ; preds = %50, %.lr.ph
  %.044 = phi ptr [ %46, %.lr.ph ], [ %.1, %50 ]
  %53 = call ptr @Curl_cookie_add(ptr noundef nonnull %0, ptr noundef nonnull %.051, i1 noundef zeroext %.not71, i1 noundef zeroext true, ptr noundef %.044, ptr noundef null, ptr noundef null, i1 noundef zeroext true)
  %54 = call i32 @Curl_get_line(ptr noundef nonnull %5, ptr noundef nonnull %.04583) #12
  %.not69 = icmp eq i32 %54, 0
  br i1 %.not69, label %._crit_edge, label %.lr.ph, !llvm.loop !91

._crit_edge:                                      ; preds = %.critedge, %44
  call void @Curl_dyn_free(ptr noundef nonnull %5) #12
  call fastcc void @remove_expired(ptr noundef nonnull %.051)
  %.not70 = icmp eq ptr %.04882, null
  br i1 %.not70, label %57, label %55

55:                                               ; preds = %._crit_edge
  %56 = call i32 @fclose(ptr noundef nonnull %.04882)
  br label %57

57:                                               ; preds = %55, %._crit_edge
  call void @llvm.lifetime.end.p0(i64 32, ptr nonnull %5) #12
  br label %58

58:                                               ; preds = %.thread, %57, %41
  %59 = getelementptr inbounds nuw i8, ptr %0, i64 5036
  %60 = load i32, ptr %59, align 4
  %61 = or i32 %60, 8192
  store i32 %61, ptr %59, align 4
  %.pre = load i8, ptr %13, align 8
  br label %62

62:                                               ; preds = %58, %12
  %63 = phi i8 [ %.pre, %58 ], [ %17, %12 ]
  %64 = or i8 %63, 1
  store i8 %64, ptr %13, align 8
  br label %.critedge74

.critedge74:                                      ; preds = %6, %62
  %.150 = phi ptr [ %.051, %62 ], [ null, %6 ]
  ret ptr %.150
}